; Function Attrs: mustprogress nounwind willreturn uwtable
define void @Wln_ObjAddFanin(ptr noundef readonly captures(none) %0, i32 noundef %1, i32 noundef %2) local_unnamed_addr #4 {
  %4 = getelementptr inbounds nuw i8, ptr %0, i64 88
  %5 = load ptr, ptr %4, align 8
  %6 = sext i32 %1 to i64
  %7 = getelementptr inbounds %struct.Wln_Vec_t_, ptr %5, i64 %6
  %8 = getelementptr inbounds %struct.Wln_Vec_t_, ptr %5, i64 %6, i32 1
  %9 = load i32, ptr %8, align 4
  %10 = icmp slt i32 %9, 2
  br i1 %10, label %11, label %17

11:                                               ; preds = %3
  %12 = getelementptr inbounds nuw i8, ptr %7, i64 8
  %13 = getelementptr inbounds nuw i8, ptr %7, i64 4
  %14 = add nsw i32 %9, 1
  store i32 %14, ptr %13, align 4
  %15 = sext i32 %9 to i64
  %16 = getelementptr inbounds [2 x i32], ptr %12, i64 0, i64 %15
  store i32 %2, ptr %16, align 4
  br label %49

17:                                               ; preds = %3
  %18 = icmp eq i32 %9, 2
  br i1 %18, label %19, label %28

19:                                               ; preds = %17
  %20 = tail call noalias dereferenceable_or_null(16) ptr @malloc(i64 noundef 16) #13
  %21 = getelementptr inbounds nuw i8, ptr %7, i64 8
  %22 = load i32, ptr %21, align 8
  store i32 %22, ptr %20, align 4
  %23 = getelementptr inbounds nuw i8, ptr %7, i64 12
  %24 = load i32, ptr %23, align 4
  %25 = getelementptr inbounds nuw i8, ptr %20, i64 4
  store i32 %24, ptr %25, align 4
  %26 = getelementptr inbounds nuw i8, ptr %20, i64 8
  store i32 %2, ptr %26, align 4
  store ptr %20, ptr %21, align 8
  %27 = getelementptr inbounds nuw i8, ptr %7, i64 4
  store i32 3, ptr %27, align 4
  store i32 4, ptr %7, align 8
  br label %49

28:                                               ; preds = %17
  %29 = getelementptr inbounds nuw i8, ptr %7, i64 4
  %30 = load i32, ptr %7, align 8
  %31 = icmp eq i32 %9, %30
  %32 = getelementptr inbounds nuw i8, ptr %7, i64 8
  %33 = load ptr, ptr %32, align 8
  br i1 %31, label %34, label %._crit_edge

34:                                               ; preds = %28
  %.not = icmp eq ptr %33, null
  %35 = shl nuw nsw i32 %9, 1
  store i32 %35, ptr %7, align 8
  %36 = zext nneg i32 %35 to i64
  %37 = shl nuw nsw i64 %36, 2
  br i1 %.not, label %40, label %38

38:                                               ; preds = %34
  %39 = tail call ptr @realloc(ptr noundef nonnull %33, i64 noundef %37) #14
  %.pre32.pre = load i32, ptr %29, align 4
  br label %42

40:                                               ; preds = %34
  %41 = tail call noalias ptr @malloc(i64 noundef %37) #13
  br label %42

42:                                               ; preds = %40, %38
  %.pre32 = phi i32 [ %.pre32.pre, %38 ], [ %9, %40 ]
  %43 = phi ptr [ %39, %38 ], [ %41, %40 ]
  store ptr %43, ptr %32, align 8
  br label %._crit_edge

._crit_edge:                                      ; preds = %28, %42
  %44 = phi i32 [ %.pre32, %42 ], [ %9, %28 ]
  %45 = phi ptr [ %43, %42 ], [ %33, %28 ]
  %46 = add nsw i32 %44, 1
  store i32 %46, ptr %29, align 4
  %47 = sext i32 %44 to i64
  %48 = getelementptr inbounds i32, ptr %45, i64 %47
  store i32 %2, ptr %48, align 4
  br label %49

49:                                               ; preds = %19, %._crit_edge, %11
  ret void
}